target datalayout = "e-m:e-p270:32:32-p271:32:32-p272:64:64-i64:64-i128:128-f80:128-n8:16:32:64-S128"
target triple = "x86_64-pc-linux-gnu"

%struct.Inter_Man_t_ = type { ptr, ptr, ptr, ptr, ptr, ptr, ptr, ptr, ptr, ptr, i32, i32, i32, i32, ptr, i64, i64, i64, i64, i64, i64, i64 }
%struct.Vec_Ptr_t_ = type { i32, i32, ptr }

; Function Attrs: inlinehint nounwind uwtable
define internal void @Vec_PtrClear(ptr noundef %0) #4 {
  %2 = alloca ptr, align 8
  store ptr %0, ptr %2, align 8, !tbaa !45
  %3 = load ptr, ptr %2, align 8, !tbaa !45
  %4 = getelementptr inbounds nuw %struct.Vec_Ptr_t_, ptr %3, i32 0, i32 1
  store i32 0, ptr %4, align 4, !tbaa !46
  ret void
}

; Function Attrs: inlinehint nounwind uwtable
define internal ptr @Vec_PtrEntry(ptr noundef %0, i32 noundef %1) #4 {
  %3 = alloca ptr, align 8
  %4 = alloca i32, align 4
  store ptr %0, ptr %3, align 8, !tbaa !45
  store i32 %1, ptr %4, align 4, !tbaa !30
  %5 = load ptr, ptr %3, align 8, !tbaa !45
  %6 = getelementptr inbounds nuw %struct.Vec_Ptr_t_, ptr %5, i32 0, i32 2
  %7 = load ptr, ptr %6, align 8, !tbaa !49
  %8 = load i32, ptr %4, align 4, !tbaa !30
  %9 = sext i32 %8 to i64
  %10 = getelementptr inbounds ptr, ptr %7, i64 %9
  %11 = load ptr, ptr %10, align 8, !tbaa !56
  ret ptr %11
}

; Function Attrs: inlinehint nounwind uwtable
define internal i32 @Vec_PtrSize(ptr noundef %0) #4 {
  %2 = alloca ptr, align 8
  store ptr %0, ptr %2, align 8, !tbaa !45
  %3 = load ptr, ptr %2, align 8, !tbaa !45
  %4 = getelementptr inbounds nuw %struct.Vec_Ptr_t_, ptr %3, i32 0, i32 1
  %5 = load i32, ptr %4, align 4, !tbaa !46
  ret i32 %5
}

; Function Attrs: nounwind uwtable
define void @Inter_ManClean(ptr noundef %0) #0 {
  %2 = alloca ptr, align 8
  %3 = alloca ptr, align 8
  %4 = alloca i32, align 4
  store ptr %0, ptr %2, align 8, !tbaa !10
  %5 = load ptr, ptr %2, align 8, !tbaa !10
  %6 = getelementptr inbounds nuw %struct.Inter_Man_t_, ptr %5, i32 0, i32 9
  %7 = load ptr, ptr %6, align 8, !tbaa !29
  %8 = icmp ne ptr %7, null
  br i1 %8, label %9, label %34

9:                                                ; preds = %1
  call void @llvm.lifetime.start.p0(i64 8, ptr %3) #9
  call void @llvm.lifetime.start.p0(i64 4, ptr %4) #9
  store i32 0, ptr %4, align 4, !tbaa !30
  br label %10

10:                                               ; preds = %27, %9
  %11 = load i32, ptr %4, align 4, !tbaa !30
  %12 = load ptr, ptr %2, align 8, !tbaa !10
  %13 = getelementptr inbounds nuw %struct.Inter_Man_t_, ptr %12, i32 0, i32 9
  %14 = load ptr, ptr %13, align 8, !tbaa !29
  %15 = call i32 @Vec_PtrSize(ptr noundef %14)
  %16 = icmp slt i32 %11, %15
  br i1 %16, label %17, label %23

17:                                               ; preds = %10
  %18 = load ptr, ptr %2, align 8, !tbaa !10
  %19 = getelementptr inbounds nuw %struct.Inter_Man_t_, ptr %18, i32 0, i32 9
  %20 = load ptr, ptr %19, align 8, !tbaa !29
  %21 = load i32, ptr %4, align 4, !tbaa !30
  %22 = call ptr @Vec_PtrEntry(ptr noundef %20, i32 noundef %21)
  store ptr %22, ptr %3, align 8, !tbaa !3
  br label %23

23:                                               ; preds = %17, %10
  %24 = phi i1 [ false, %10 ], [ true, %17 ]
  br i1 %24, label %25, label %30

25:                                               ; preds = %23
  %26 = load ptr, ptr %3, align 8, !tbaa !3
  call void @Aig_ManStop(ptr noundef %26)
  br label %27

27:                                               ; preds = %25
  %28 = load i32, ptr %4, align 4, !tbaa !30
  %29 = add nsw i32 %28, 1
  store i32 %29, ptr %4, align 4, !tbaa !30
  br label %10, !llvm.loop !50

30:                                               ; preds = %23
  %31 = load ptr, ptr %2, align 8, !tbaa !10
  %32 = getelementptr inbounds nuw %struct.Inter_Man_t_, ptr %31, i32 0, i32 9
  %33 = load ptr, ptr %32, align 8, !tbaa !29
  call void @Vec_PtrClear(ptr noundef %33)
  call void @llvm.lifetime.end.p0(i64 4, ptr %4) #9
  call void @llvm.lifetime.end.p0(i64 8, ptr %3) #9
  br label %34

34:                                               ; preds = %30, %1
  %35 = load ptr, ptr %2, align 8, !tbaa !10
  %36 = getelementptr inbounds nuw %struct.Inter_Man_t_, ptr %35, i32 0, i32 4
  %37 = load ptr, ptr %36, align 8, !tbaa !52
  %38 = icmp ne ptr %37, null
  br i1 %38, label %39, label %43

39:                                               ; preds = %34
  %40 = load ptr, ptr %2, align 8, !tbaa !10
  %41 = getelementptr inbounds nuw %struct.Inter_Man_t_, ptr %40, i32 0, i32 4
  %42 = load ptr, ptr %41, align 8, !tbaa !52
  call void @Cnf_DataFree(ptr noundef %42)
  br label %43

43:                                               ; preds = %39, %34
  %44 = load ptr, ptr %2, align 8, !tbaa !10
  %45 = getelementptr inbounds nuw %struct.Inter_Man_t_, ptr %44, i32 0, i32 6
  %46 = load ptr, ptr %45, align 8, !tbaa !53
  %47 = icmp ne ptr %46, null
  br i1 %47, label %48, label %52

48:                                               ; preds = %43
  %49 = load ptr, ptr %2, align 8, !tbaa !10
  %50 = getelementptr inbounds nuw %struct.Inter_Man_t_, ptr %49, i32 0, i32 6
  %51 = load ptr, ptr %50, align 8, !tbaa !53
  call void @Cnf_DataFree(ptr noundef %51)
  br label %52

52:                                               ; preds = %48, %43
  %53 = load ptr, ptr %2, align 8, !tbaa !10
  %54 = getelementptr inbounds nuw %struct.Inter_Man_t_, ptr %53, i32 0, i32 3
  %55 = load ptr, ptr %54, align 8, !tbaa !54
  %56 = icmp ne ptr %55, null
  br i1 %56, label %57, label %61

57:                                               ; preds = %52
  %58 = load ptr, ptr %2, align 8, !tbaa !10
  %59 = getelementptr inbounds nuw %struct.Inter_Man_t_, ptr %58, i32 0, i32 3
  %60 = load ptr, ptr %59, align 8, !tbaa !54
  call void @Aig_ManStop(ptr noundef %60)
  br label %61

61:                                               ; preds = %57, %52
  %62 = load ptr, ptr %2, align 8, !tbaa !10
  %63 = getelementptr inbounds nuw %struct.Inter_Man_t_, ptr %62, i32 0, i32 5
  %64 = load ptr, ptr %63, align 8, !tbaa !55
  %65 = icmp ne ptr %64, null
  br i1 %65, label %66, label %70

66:                                               ; preds = %61
  %67 = load ptr, ptr %2, align 8, !tbaa !10
  %68 = getelementptr inbounds nuw %struct.Inter_Man_t_, ptr %67, i32 0, i32 5
  %69 = load ptr, ptr %68, align 8, !tbaa !55
  call void @Aig_ManStop(ptr noundef %69)
  br label %70

70:                                               ; preds = %66, %61
  ret void
}