; Function Attrs: nounwind uwtable
define void @Inter_ManClean(ptr noundef readonly captures(none) %0) local_unnamed_addr #3 {
  %2 = getelementptr inbounds nuw i8, ptr %0, i64 72
  %3 = load ptr, ptr %2, align 8, !tbaa !41
  %.not = icmp eq ptr %3, null
  br i1 %.not, label %15, label %.preheader

.preheader:                                       ; preds = %1
  %4 = getelementptr i8, ptr %3, i64 4
  %.val25 = load i32, ptr %4, align 4, !tbaa !37
  %5 = icmp sgt i32 %.val25, 0
  br i1 %5, label %.lr.ph, label %.critedge

.lr.ph:                                           ; preds = %.preheader, %.lr.ph
  %indvars.iv = phi i64 [ %indvars.iv.next, %.lr.ph ], [ 0, %.preheader ]
  %6 = phi ptr [ %10, %.lr.ph ], [ %3, %.preheader ]
  %7 = getelementptr i8, ptr %6, i64 8
  %.val23 = load ptr, ptr %7, align 8, !tbaa !40
  %8 = getelementptr inbounds nuw ptr, ptr %.val23, i64 %indvars.iv
  %9 = load ptr, ptr %8, align 8, !tbaa !42
  tail call void @Aig_ManStop(ptr noundef %9) #13
  %indvars.iv.next = add nuw nsw i64 %indvars.iv, 1
  %10 = load ptr, ptr %2, align 8, !tbaa !41
  %11 = getelementptr i8, ptr %10, i64 4
  %.val = load i32, ptr %11, align 4, !tbaa !37
  %12 = sext i32 %.val to i64
  %13 = icmp slt i64 %indvars.iv.next, %12
  br i1 %13, label %.lr.ph, label %.critedge, !llvm.loop !43

.critedge:                                        ; preds = %.lr.ph, %.preheader
  %.lcssa24 = phi ptr [ %3, %.preheader ], [ %10, %.lr.ph ]
  %14 = getelementptr i8, ptr %.lcssa24, i64 4
  store i32 0, ptr %14, align 4, !tbaa !37
  br label %15

15:                                               ; preds = %.critedge, %1
  %16 = getelementptr inbounds nuw i8, ptr %0, i64 32
  %17 = load ptr, ptr %16, align 8, !tbaa !45
  %.not19 = icmp eq ptr %17, null
  br i1 %.not19, label %19, label %18

18:                                               ; preds = %15
  tail call void @Cnf_DataFree(ptr noundef nonnull %17) #13
  br label %19

19:                                               ; preds = %18, %15
  %20 = getelementptr inbounds nuw i8, ptr %0, i64 48
  %21 = load ptr, ptr %20, align 8, !tbaa !46
  %.not20 = icmp eq ptr %21, null
  br i1 %.not20, label %23, label %22

22:                                               ; preds = %19
  tail call void @Cnf_DataFree(ptr noundef nonnull %21) #13
  br label %23

23:                                               ; preds = %22, %19
  %24 = getelementptr inbounds nuw i8, ptr %0, i64 24
  %25 = load ptr, ptr %24, align 8, !tbaa !47
  %.not21 = icmp eq ptr %25, null
  br i1 %.not21, label %27, label %26

26:                                               ; preds = %23
  tail call void @Aig_ManStop(ptr noundef nonnull %25) #13
  br label %27

27:                                               ; preds = %26, %23
  %28 = getelementptr inbounds nuw i8, ptr %0, i64 40
  %29 = load ptr, ptr %28, align 8, !tbaa !48
  %.not22 = icmp eq ptr %29, null
  br i1 %.not22, label %31, label %30

30:                                               ; preds = %27
  tail call void @Aig_ManStop(ptr noundef nonnull %29) #13
  br label %31

31:                                               ; preds = %30, %27
  ret void
}